target datalayout = "e-m:e-p270:32:32-p271:32:32-p272:64:64-i64:64-i128:128-f80:128-n8:16:32:64-S128"
target triple = "x86_64-pc-linux-gnu"

%struct.avifArrayInternal = type { ptr, i32, i32, i32 }

; Function Attrs: nounwind uwtable
define hidden i32 @avifArrayCreate(ptr noundef %0, i32 noundef %1, i32 noundef %2) #0 {
  %4 = alloca i32, align 4
  %5 = alloca ptr, align 8
  %6 = alloca i32, align 4
  %7 = alloca i32, align 4
  %8 = alloca ptr, align 8
  %9 = alloca i64, align 8
  store ptr %0, ptr %5, align 8
  store i32 %1, ptr %6, align 4
  store i32 %2, ptr %7, align 4
  %10 = load ptr, ptr %5, align 8
  store ptr %10, ptr %8, align 8
  %11 = load i32, ptr %6, align 4
  %12 = icmp ne i32 %11, 0
  br i1 %12, label %13, label %15

13:                                               ; preds = %3
  %14 = load i32, ptr %6, align 4
  br label %16

15:                                               ; preds = %3
  br label %16

16:                                               ; preds = %15, %13
  %17 = phi i32 [ %14, %13 ], [ 1, %15 ]
  %18 = load ptr, ptr %8, align 8
  %19 = getelementptr inbounds nuw %struct.avifArrayInternal, ptr %18, i32 0, i32 1
  store i32 %17, ptr %19, align 8
  %20 = load ptr, ptr %8, align 8
  %21 = getelementptr inbounds nuw %struct.avifArrayInternal, ptr %20, i32 0, i32 2
  store i32 0, ptr %21, align 4
  %22 = load i32, ptr %7, align 4
  %23 = load ptr, ptr %8, align 8
  %24 = getelementptr inbounds nuw %struct.avifArrayInternal, ptr %23, i32 0, i32 3
  store i32 %22, ptr %24, align 8
  %25 = load ptr, ptr %8, align 8
  %26 = getelementptr inbounds nuw %struct.avifArrayInternal, ptr %25, i32 0, i32 1
  %27 = load i32, ptr %26, align 8
  %28 = zext i32 %27 to i64
  %29 = load ptr, ptr %8, align 8
  %30 = getelementptr inbounds nuw %struct.avifArrayInternal, ptr %29, i32 0, i32 3
  %31 = load i32, ptr %30, align 8
  %32 = zext i32 %31 to i64
  %33 = mul i64 %28, %32
  store i64 %33, ptr %9, align 8
  %34 = load i64, ptr %9, align 8
  %35 = call ptr @avifAlloc(i64 noundef %34)
  %36 = load ptr, ptr %8, align 8
  %37 = getelementptr inbounds nuw %struct.avifArrayInternal, ptr %36, i32 0, i32 0
  store ptr %35, ptr %37, align 8
  %38 = load ptr, ptr %8, align 8
  %39 = getelementptr inbounds nuw %struct.avifArrayInternal, ptr %38, i32 0, i32 0
  %40 = load ptr, ptr %39, align 8
  %41 = icmp ne ptr %40, null
  br i1 %41, label %45, label %42

42:                                               ; preds = %16
  %43 = load ptr, ptr %8, align 8
  %44 = getelementptr inbounds nuw %struct.avifArrayInternal, ptr %43, i32 0, i32 3
  store i32 0, ptr %44, align 8
  store i32 0, ptr %4, align 4
  br label %50

45:                                               ; preds = %16
  %46 = load ptr, ptr %8, align 8
  %47 = getelementptr inbounds nuw %struct.avifArrayInternal, ptr %46, i32 0, i32 0
  %48 = load ptr, ptr %47, align 8
  %49 = load i64, ptr %9, align 8
  call void @llvm.memset.p0.i64(ptr align 1 %48, i8 0, i64 %49, i1 false)
  store i32 1, ptr %4, align 4
  br label %50

50:                                               ; preds = %45, %42
  %51 = load i32, ptr %4, align 4
  ret i32 %51
}