; Function Attrs: nounwind uwtable
define hidden range(i32 0, 2) i32 @avifArrayCreate(ptr nocapture noundef writeonly %0, i32 noundef %1, i32 noundef %2) local_unnamed_addr #2 {
  %4 = tail call i32 @llvm.umax.i32(i32 %1, i32 1)
  %5 = getelementptr inbounds nuw i8, ptr %0, i64 8
  store i32 %4, ptr %5, align 8
  %6 = getelementptr inbounds nuw i8, ptr %0, i64 12
  store i32 0, ptr %6, align 4
  %7 = getelementptr inbounds nuw i8, ptr %0, i64 16
  store i32 %2, ptr %7, align 8
  %8 = zext i32 %4 to i64
  %9 = zext i32 %2 to i64
  %10 = mul nuw i64 %8, %9
  %11 = tail call ptr @avifAlloc(i64 noundef %10) #10
  store ptr %11, ptr %0, align 8
  %.not = icmp eq ptr %11, null
  br i1 %.not, label %12, label %13

12:                                               ; preds = %3
  store i32 0, ptr %7, align 8
  br label %14

13:                                               ; preds = %3
  tail call void @llvm.memset.p0.i64(ptr nonnull align 1 %11, i8 0, i64 %10, i1 false)
  br label %14

14:                                               ; preds = %13, %12
  %.0 = phi i32 [ 1, %13 ], [ 0, %12 ]
  ret i32 %.0
}